target datalayout = "e-m:e-p270:32:32-p271:32:32-p272:64:64-i64:64-i128:128-f80:128-n8:16:32:64-S128"
target triple = "x86_64-pc-linux-gnu"

%class.TFHandle = type <{ %class.Handle, i32, [4 x i8], ptr, i8, [7 x i8] }>
%class.Handle = type { %class.QGraphicsObject, %class.QColor, i32, ptr }
%class.QGraphicsObject = type { %class.QObject, %class.QGraphicsItem }
%class.QObject = type { ptr, %class.QScopedPointer }
%class.QScopedPointer = type { ptr }
%class.QGraphicsItem = type { ptr, %class.QScopedPointer.16 }
%class.QScopedPointer.16 = type { ptr }
%class.QColor = type <{ i32, %"union.QColor::CT", [2 x i8] }>
%"union.QColor::CT" = type { %struct.anon }
%struct.anon = type { i16, i16, i16, i16, i16 }
%struct.TF_KEY = type { float, float }

; Function Attrs: mustprogress nounwind uwtable
define linkonce_odr noundef float @_ZN8TFHandle12getRelativeXEv(ptr noundef nonnull align 8 dereferenceable(81) %0) #4 comdat align 2 {
  %2 = alloca ptr, align 8
  store ptr %0, ptr %2, align 8
  %3 = load ptr, ptr %2, align 8
  %4 = getelementptr inbounds %class.TFHandle, ptr %3, i32 0, i32 3
  %5 = load ptr, ptr %4, align 8
  %6 = getelementptr inbounds %struct.TF_KEY, ptr %5, i32 0, i32 0
  %7 = load float, ptr %6, align 4
  ret float %7
}

; Function Attrs: mustprogress uwtable
define noundef zeroext i1 @_Z15TfHandleCompareP8TFHandleS0_(ptr noundef %0, ptr noundef %1) #5 {
  %3 = alloca ptr, align 8
  %4 = alloca ptr, align 8
  store ptr %0, ptr %3, align 8
  store ptr %1, ptr %4, align 8
  %5 = load ptr, ptr %3, align 8
  %6 = call noundef float @_ZN8TFHandle12getRelativeXEv(ptr noundef nonnull align 8 dereferenceable(81) %5)
  %7 = load ptr, ptr %4, align 8
  %8 = call noundef float @_ZN8TFHandle12getRelativeXEv(ptr noundef nonnull align 8 dereferenceable(81) %7)
  %9 = fcmp ole float %6, %8
  ret i1 %9
}