; Function Attrs: mustprogress nofree norecurse nosync nounwind willreturn memory(read, inaccessiblemem: none) uwtable
define noundef zeroext i1 @_Z15TfHandleCompareP8TFHandleS0_(ptr nocapture noundef readonly %0, ptr nocapture noundef readonly %1) #11 {
  %3 = getelementptr inbounds i8, ptr %0, i64 72
  %4 = load ptr, ptr %3, align 8
  %5 = load float, ptr %4, align 4
  %6 = getelementptr inbounds i8, ptr %1, i64 72
  %7 = load ptr, ptr %6, align 8
  %8 = load float, ptr %7, align 4
  %9 = fcmp ole float %5, %8
  ret i1 %9
}